target datalayout = "e-m:e-p270:32:32-p271:32:32-p272:64:64-i64:64-i128:128-f80:128-n8:16:32:64-S128"
target triple = "x86_64-pc-linux-gnu"

%struct.expert_field = type { i32, i32 }
%struct._asn1_ctx_t = type { i32, i32, i8, ptr, ptr, ptr, ptr, ptr, %struct.anon, %struct.anon.2, %struct.anon.3, ptr }
%struct.anon = type { i32, i8, i8, i8, ptr, ptr, i32, i32, ptr, ptr, ptr, %union.anon }
%union.anon = type { %struct.anon.0 }
%struct.anon.0 = type { ptr }
%struct.anon.2 = type { ptr, ptr, ptr }
%struct.anon.3 = type { i32, i8, ptr, i32, i32, ptr, ptr, ptr, %union.anon.4 }
%union.anon.4 = type { %struct.anon.5 }
%struct.anon.5 = type { ptr }
%struct._packet_info = type { ptr, ptr, i32, i32, %struct.nstime_t, %struct.nstime_t, %struct.nstime_t, i32, ptr, ptr, ptr, ptr, %struct._address, %struct._address, %struct._address, %struct._address, %struct._address, %struct._address, i32, ptr, i32, %struct.anon.7, i32, i32, i32, i32, ptr, i32, ptr, ptr, i16, i16, i32, i32, i16, i32, i32, ptr, ptr, ptr, i8, i8, i16, i16, i16, i32, i16, i16, ptr, ptr, ptr, ptr, ptr, i32 }
%struct.nstime_t = type { i64, i32 }
%struct._address = type { i32, i32, ptr, ptr }
%struct.anon.7 = type { i8, [3 x i8] }

@.str.7 = private unnamed_addr constant [45 x i8] c"Encoding of bitstring values not handled yet\00", align 1
@ei_oer_undecoded = internal global %struct.expert_field zeroinitializer, align 4
@.str.41 = private unnamed_addr constant [28 x i8] c"something unknown here [%s]\00", align 1
@.str.42 = private unnamed_addr constant [18 x i8] c"[UNKNOWN OER: %s]\00", align 1

; Function Attrs: nounwind uwtable
define internal void @dissect_oer_not_decoded_yet(ptr noundef %0, ptr noundef %1, ptr noundef %2, ptr noundef %3) #0 {
  %5 = alloca ptr, align 8
  %6 = alloca ptr, align 8
  %7 = alloca ptr, align 8
  %8 = alloca ptr, align 8
  store ptr %0, ptr %5, align 8
  store ptr %1, ptr %6, align 8
  store ptr %2, ptr %7, align 8
  store ptr %3, ptr %8, align 8
  %9 = load ptr, ptr %5, align 8
  %10 = load ptr, ptr %6, align 8
  %11 = load ptr, ptr %7, align 8
  %12 = load ptr, ptr %8, align 8
  %13 = call ptr (ptr, ptr, ptr, ptr, i32, i32, ptr, ...) @proto_tree_add_expert_format(ptr noundef %9, ptr noundef %10, ptr noundef @ei_oer_undecoded, ptr noundef %11, i32 noundef 0, i32 noundef 0, ptr noundef @.str.41, ptr noundef %12)
  %14 = load ptr, ptr %6, align 8
  %15 = getelementptr inbounds %struct._packet_info, ptr %14, i32 0, i32 1
  %16 = load ptr, ptr %15, align 8
  %17 = load ptr, ptr %8, align 8
  call void (ptr, i32, ptr, ...) @col_append_fstr(ptr noundef %16, i32 noundef 25, ptr noundef @.str.42, ptr noundef %17)
  call void @except_throw(i64 noundef 1, i64 noundef 3, ptr noundef null) #4
  unreachable
}

; Function Attrs: nounwind uwtable
define i32 @dissect_oer_bit_string(ptr noundef %0, i32 noundef %1, ptr noundef %2, ptr noundef %3, i32 noundef %4, i32 noundef %5, i32 noundef %6, i32 noundef %7, ptr noundef %8, i32 noundef %9, ptr noundef %10, ptr noundef %11) #0 {
  %13 = alloca ptr, align 8
  %14 = alloca i32, align 4
  %15 = alloca ptr, align 8
  %16 = alloca ptr, align 8
  %17 = alloca i32, align 4
  %18 = alloca i32, align 4
  %19 = alloca i32, align 4
  %20 = alloca i32, align 4
  %21 = alloca ptr, align 8
  %22 = alloca i32, align 4
  %23 = alloca ptr, align 8
  %24 = alloca ptr, align 8
  store ptr %0, ptr %13, align 8
  store i32 %1, ptr %14, align 4
  store ptr %2, ptr %15, align 8
  store ptr %3, ptr %16, align 8
  store i32 %4, ptr %17, align 4
  store i32 %5, ptr %18, align 4
  store i32 %6, ptr %19, align 4
  store i32 %7, ptr %20, align 4
  store ptr %8, ptr %21, align 8
  store i32 %9, ptr %22, align 4
  store ptr %10, ptr %23, align 8
  store ptr %11, ptr %24, align 8
  %25 = load ptr, ptr %16, align 8
  %26 = load ptr, ptr %15, align 8
  %27 = getelementptr inbounds %struct._asn1_ctx_t, ptr %26, i32 0, i32 3
  %28 = load ptr, ptr %27, align 8
  %29 = load ptr, ptr %13, align 8
  call void @dissect_oer_not_decoded_yet(ptr noundef %25, ptr noundef %28, ptr noundef %29, ptr noundef @.str.7)
  %30 = load ptr, ptr %13, align 8
  %31 = call i32 @tvb_reported_length(ptr noundef %30)
  ret i32 %31
}