; Function Attrs: noreturn nounwind uwtable
define noundef i32 @dissect_oer_bit_string(ptr noundef %0, i32 noundef %1, ptr noundef readonly captures(none) %2, ptr noundef %3, i32 noundef %4, i32 noundef %5, i32 noundef %6, i32 noundef %7, ptr noundef readnone captures(none) %8, i32 noundef %9, ptr noundef readnone captures(none) %10, ptr noundef readnone captures(none) %11) local_unnamed_addr #3 {
  %13 = getelementptr inbounds nuw i8, ptr %2, i64 16
  %14 = load ptr, ptr %13, align 8
  %15 = tail call ptr (ptr, ptr, ptr, ptr, i32, i32, ptr, ...) @proto_tree_add_expert_format(ptr noundef %3, ptr noundef %14, ptr noundef nonnull @ei_oer_undecoded, ptr noundef %0, i32 noundef 0, i32 noundef 0, ptr noundef nonnull @.str.41, ptr noundef nonnull @.str.7) #8
  %16 = getelementptr inbounds nuw i8, ptr %14, i64 8
  %17 = load ptr, ptr %16, align 8
  tail call void (ptr, i32, ptr, ...) @col_append_fstr(ptr noundef %17, i32 noundef 25, ptr noundef nonnull @.str.42, ptr noundef nonnull @.str.7) #8
  tail call void @except_throw(i64 noundef 1, i64 noundef 3, ptr noundef null) #9
  unreachable
}